; Function Attrs: mustprogress uwtable
define hidden void @_ZN2dd11pdd_manager6mk_xorERKNS_3pddEj(ptr dead_on_unwind noalias writable sret(%"class.dd::pdd") align 8 %0, ptr noundef nonnull align 8 dereferenceable(952) %1, ptr noundef nonnull align 8 dereferenceable(16) %2, i32 noundef %3) local_unnamed_addr #3 align 2 personality ptr @__gxx_personality_v0 {
  %5 = alloca %"class.dd::pdd", align 8
  call void @llvm.lifetime.start.p0(i64 16, ptr nonnull %5) #29
  call void @_ZN2dd11pdd_manager6mk_valEj(ptr dead_on_unwind nonnull writable sret(%"class.dd::pdd") align 8 %5, ptr noundef nonnull align 8 dereferenceable(952) %1, i32 noundef %3)
  invoke void @_ZN2dd11pdd_manager6mk_xorERKNS_3pddES3_(ptr dead_on_unwind writable sret(%"class.dd::pdd") align 8 %0, ptr noundef nonnull align 8 dereferenceable(952) %1, ptr noundef nonnull align 8 dereferenceable(16) %2, ptr noundef nonnull align 8 dereferenceable(16) %5)
          to label %6 unwind label %20

6:                                                ; preds = %4
  %7 = getelementptr inbounds nuw i8, ptr %5, i64 8
  %8 = load ptr, ptr %7, align 8, !tbaa !122
  %9 = load i32, ptr %5, align 8, !tbaa !119
  %10 = load ptr, ptr %8, align 8, !tbaa !91
  %11 = zext i32 %9 to i64
  %12 = getelementptr inbounds nuw %"struct.dd::pdd_manager::node", ptr %10, i64 %11
  %13 = load i32, ptr %12, align 4
  %14 = and i32 %13, 1023
  %.not.i.i = icmp eq i32 %14, 1023
  br i1 %.not.i.i, label %_ZN2dd3pddD2Ev.exit, label %15

15:                                               ; preds = %6
  %16 = add i32 %13, 1023
  %17 = and i32 %16, 1023
  %18 = and i32 %13, -1024
  %19 = or disjoint i32 %17, %18
  store i32 %19, ptr %12, align 4
  br label %_ZN2dd3pddD2Ev.exit

_ZN2dd3pddD2Ev.exit:                              ; preds = %6, %15
  call void @llvm.lifetime.end.p0(i64 16, ptr nonnull %5) #29
  ret void

20:                                               ; preds = %4
  %21 = landingpad { ptr, i32 }
          cleanup
  %22 = getelementptr inbounds nuw i8, ptr %5, i64 8
  %23 = load ptr, ptr %22, align 8, !tbaa !122
  %24 = load i32, ptr %5, align 8, !tbaa !119
  %25 = load ptr, ptr %23, align 8, !tbaa !91
  %26 = zext i32 %24 to i64
  %27 = getelementptr inbounds nuw %"struct.dd::pdd_manager::node", ptr %25, i64 %26
  %28 = load i32, ptr %27, align 4
  %29 = and i32 %28, 1023
  %.not.i.i4 = icmp eq i32 %29, 1023
  br i1 %.not.i.i4, label %_ZN2dd3pddD2Ev.exit5, label %30

30:                                               ; preds = %20
  %31 = add i32 %28, 1023
  %32 = and i32 %31, 1023
  %33 = and i32 %28, -1024
  %34 = or disjoint i32 %32, %33
  store i32 %34, ptr %27, align 4
  br label %_ZN2dd3pddD2Ev.exit5

_ZN2dd3pddD2Ev.exit5:                             ; preds = %20, %30
  call void @llvm.lifetime.end.p0(i64 16, ptr nonnull %5) #29
  resume { ptr, i32 } %21
}